; Function Attrs: mustprogress uwtable
define internal noundef ptr @"_ZZN4pkpy6Struct9_registerEPNS_2VMEPNS_8PyObjectES4_EN3$_68__invokeES2_NS_8ArgsViewE"(ptr noundef nonnull %0, ptr nocapture readonly %1, ptr nocapture readnone %2) #3 align 2 {
  %4 = load ptr, ptr %1, align 8
  %5 = tail call i16 @_ZN4pkpy2VM28_find_type_in_cxx_typeid_mapINS_6StructEEENS_4TypeEv(ptr noundef nonnull align 8 dereferenceable(264913) %0)
  %6 = getelementptr inbounds i8, ptr %4, i64 24
  %7 = getelementptr inbounds i8, ptr %0, i64 16
  %8 = load ptr, ptr %1, align 8
  %9 = ptrtoint ptr %8 to i64
  %10 = and i64 %9, 3
  %11 = icmp eq i64 %10, 2
  %12 = getelementptr inbounds i8, ptr %8, i64 10
  %13 = select i1 %11, ptr @_ZN4pkpy2VM6tp_intE, ptr %12
  %.sroa.0.0.copyload.i.i = load i16, ptr %13, align 2
  %14 = tail call noundef ptr @_ZN4pkpy11ManagedHeap5gcnewINS_6StructEJRKS2_EEEPNS_8PyObjectENS_4TypeEDpOT0_(ptr noundef nonnull align 8 dereferenceable(84) %7, i16 %.sroa.0.0.copyload.i.i, ptr noundef nonnull align 8 dereferenceable(36) %6)
  ret ptr %14
}